(dp1
S'failed'
p2
(lp3
sS'source_names'
p4
(lp5
S'calabar'
p6
aS'calabar.tests.test_tunnels.test_tunnel_manager:TestStartingSingleTunnel.test_continue_after_kill'
p7
aS'calabar.tests.test_tunnels.test_tunnel_manager:TestStartingSingleTunnel.test_close'
p8
asS'ids'
p9
(dp10
I1
(S'/home/wes/.virtualenvs/pstat_dev/src/calabar/calabar/tests/test_tunnels/test_base.py'
S'calabar.tests.test_tunnels.test_base'
p11
S'TestInvalidTunnel.test_close_failure'
tp12
sI2
(S'/home/wes/.virtualenvs/pstat_dev/src/calabar/calabar/tests/test_tunnels/test_base.py'
g11
S'TestInvalidTunnel.test_isrunning_failure'
tp13
sI3
(S'/home/wes/.virtualenvs/pstat_dev/src/calabar/calabar/tests/test_tunnels/test_base.py'
g11
S'TestInvalidTunnel.test_open_fail'
tp14
sI4
(S'/home/wes/.virtualenvs/pstat_dev/src/calabar/calabar/tests/test_tunnels/test_base.py'
g11
S'TestValidTunnel.test_close_already_closed'
tp15
sI5
(S'/home/wes/.virtualenvs/pstat_dev/src/calabar/calabar/tests/test_tunnels/test_base.py'
g11
S'TestValidTunnel.test_close_running'
tp16
sI6
(S'/home/wes/.virtualenvs/pstat_dev/src/calabar/calabar/tests/test_tunnels/test_base.py'
g11
S'TestValidTunnel.test_close_running_force'
tp17
sI7
(S'/home/wes/.virtualenvs/pstat_dev/src/calabar/calabar/tests/test_tunnels/test_base.py'
g11
S'TestValidTunnel.test_isrunning_closed'
tp18
sI8
(S'/home/wes/.virtualenvs/pstat_dev/src/calabar/calabar/tests/test_tunnels/test_base.py'
g11
S'TestValidTunnel.test_isrunning_success'
tp19
sI9
(S'/home/wes/.virtualenvs/pstat_dev/src/calabar/calabar/tests/test_tunnels/test_base.py'
g11
S'TestValidTunnel.test_open_success'
tp20
sI10
(S'/home/wes/.virtualenvs/pstat_dev/src/calabar/calabar/tests/test_tunnels/test_vpnc.py'
S'calabar.tests.test_tunnels.test_vpnc'
p21
S'TestDefaultTunnelConf.test_cmd_builder'
tp22
sI11
(S'/home/wes/.virtualenvs/pstat_dev/src/calabar/calabar/tests/test_tunnels/test_vpnc.py'
g21
S'TestDefaultTunnelConf.test_executable'
tp23
sI12
(S'/home/wes/.virtualenvs/pstat_dev/src/calabar/calabar/tests/test_tunnels/test_tunnel_manager.py'
S'calabar.tests.test_tunnels.test_tunnel_manager'
p24
S'TestStartingSingleTunnel.test_continue_after_kill'
tp25
sI13
(S'/home/wes/.virtualenvs/pstat_dev/src/calabar/calabar/tests/test_tunnels/test_tunnel_manager.py'
g24
S'TestStartingSingleTunnel.test_continue_not_started'
tp26
sI14
(S'/home/wes/.virtualenvs/pstat_dev/src/calabar/calabar/tests/test_tunnels/test_tunnel_manager.py'
g24
S'TestStartingSingleTunnel.test_continue_post_start'
tp27
sI15
(S'/home/wes/.virtualenvs/pstat_dev/src/calabar/calabar/tests/test_tunnels/test_tunnel_manager.py'
g24
S'TestStartingSingleTunnel.test_start_success'
tp28
sI16
(S'/home/wes/.virtualenvs/pstat_dev/src/calabar/calabar/tests/test_tunnels/test_tunnel_manager.py'
S'calabar.tests.test_tunnels.test_tunnel_manager'
S'TestStartingSingleTunnel.test_close'
tp29
sI17
(S'/home/wes/.virtualenvs/pstat_dev/src/calabar/calabar/tests/test_tunnels/test_tunnel_manager.py'
S'calabar.tests.test_tunnels.test_tunnel_manager'
S'TestStartingSingleTunnel.test_vanilla_continue'
tp30
ss.